(i__main__
Config
p0
(dp1
S'fontheight'
p2
I20
sS'bgcolor'
p3
csip
_unpickle_enum
p4
(S'PyQt4.QtCore'
p5
S'GlobalColor'
p6
I3
tp7
Rp8
sS'menuitemh'
p9
I10
sS'menuitemw'
p10
I50
sS'fontfamily'
p11
S'Courier New'
p12
sS'identid'
p13
S'inhahe'
p14
sS'multiline'
p15
I00
sS'cmdprefix'
p16
S'/'
p17
sS'nickswidth'
p18
I100
sS'nickname'
p19
S'inhahe2'
p20
sS'fgcolor'
p21
g4
(g5
S'GlobalColor'
p22
I2
tp23
Rp24
sS'mode'
p25
S'maximized'
p26
sb.