(i__main__
Config
p1
(dp2
S'fontheight'
p3
I20
sS'bgcolor'
p4
csip
_unpickle_enum
p5
(S'PyQt4.QtCore'
p6
S'Qt.GlobalColor'
I3
tRp7
sS'fontfamily'
p8
S'Courier New'
p9
sS'identid'
p10
S'LMach'
p11
sS'multiline'
p12
I00
sS'cmdprefix'
p13
S'/'
sS'nickswidth'
p14
I100
sS'nickname'
p15
S'LevisMachina'  
p16
sS'fgcolor'
p17
g5
(g6
S'Qt.GlobalColor'
I2
tRp18
sS'mode'
p19
S'maximized'
p20
sb.